target datalayout = "e-m:e-p270:32:32-p271:32:32-p272:64:64-i64:64-i128:128-f80:128-n8:16:32:64-S128"
target triple = "x86_64-pc-linux-gnu"

%struct.Abc_Ntk_t_ = type { i32, i32, ptr, ptr, ptr, ptr, ptr, ptr, ptr, ptr, ptr, ptr, ptr, [11 x i32], i32, i32, i32, i32, ptr, i32, ptr, ptr, i32, i32, i32, double, i32, %struct.Vec_Int_t_, ptr, ptr, ptr, ptr, ptr, float, i32, ptr, ptr, ptr, ptr, ptr, ptr, ptr, ptr, ptr, ptr, ptr, ptr, ptr, ptr, ptr, ptr, ptr, ptr, ptr, ptr, ptr, ptr }
%struct.Vec_Int_t_ = type { i32, i32, ptr }
%struct.Vec_Ptr_t_ = type { i32, i32, ptr }
%struct.Abc_Obj_t_ = type { ptr, ptr, i32, i32, %struct.Vec_Int_t_, %struct.Vec_Int_t_, %union.anon.0, %union.anon.1 }
%union.anon.0 = type { ptr }
%union.anon.1 = type { ptr }

@.str.21 = private unnamed_addr constant [2 x i8] c"A\00", align 1
@.str.22 = private unnamed_addr constant [2 x i8] c"B\00", align 1
@.str.23 = private unnamed_addr constant [2 x i8] c"C\00", align 1
@.str.26 = private unnamed_addr constant [11 x i8] c"} fanins {\00", align 1
@.str.28 = private unnamed_addr constant [29 x i8] c"node %d type=%d %s fanouts {\00", align 1
@.str.29 = private unnamed_addr constant [5 x i8] c"%d ,\00", align 1
@.str.30 = private unnamed_addr constant [3 x i8] c"} \00", align 1

; Function Attrs: inlinehint nounwind uwtable
define internal ptr @Abc_ObjFanin(ptr noundef %0, i32 noundef %1) #3 {
  %3 = alloca ptr, align 8
  %4 = alloca i32, align 4
  store ptr %0, ptr %3, align 8, !tbaa !46
  store i32 %1, ptr %4, align 4, !tbaa !8
  %5 = load ptr, ptr %3, align 8, !tbaa !46
  %6 = getelementptr inbounds nuw %struct.Abc_Obj_t_, ptr %5, i32 0, i32 0
  %7 = load ptr, ptr %6, align 8, !tbaa !71
  %8 = getelementptr inbounds nuw %struct.Abc_Ntk_t_, ptr %7, i32 0, i32 5
  %9 = load ptr, ptr %8, align 8, !tbaa !57
  %10 = getelementptr inbounds nuw %struct.Vec_Ptr_t_, ptr %9, i32 0, i32 2
  %11 = load ptr, ptr %10, align 8, !tbaa !68
  %12 = load ptr, ptr %3, align 8, !tbaa !46
  %13 = getelementptr inbounds nuw %struct.Abc_Obj_t_, ptr %12, i32 0, i32 4
  %14 = getelementptr inbounds nuw %struct.Vec_Int_t_, ptr %13, i32 0, i32 2
  %15 = load ptr, ptr %14, align 8, !tbaa !73
  %16 = load i32, ptr %4, align 4, !tbaa !8
  %17 = sext i32 %16 to i64
  %18 = getelementptr inbounds i32, ptr %15, i64 %17
  %19 = load i32, ptr %18, align 4, !tbaa !8
  %20 = sext i32 %19 to i64
  %21 = getelementptr inbounds ptr, ptr %11, i64 %20
  %22 = load ptr, ptr %21, align 8, !tbaa !74
  ret ptr %22
}

; Function Attrs: inlinehint nounwind uwtable
define internal i32 @Abc_ObjFaninNum(ptr noundef %0) #3 {
  %2 = alloca ptr, align 8
  store ptr %0, ptr %2, align 8, !tbaa !46
  %3 = load ptr, ptr %2, align 8, !tbaa !46
  %4 = getelementptr inbounds nuw %struct.Abc_Obj_t_, ptr %3, i32 0, i32 4
  %5 = getelementptr inbounds nuw %struct.Vec_Int_t_, ptr %4, i32 0, i32 1
  %6 = load i32, ptr %5, align 4, !tbaa !75
  ret i32 %6
}

; Function Attrs: inlinehint nounwind uwtable
define internal ptr @Abc_ObjFanout(ptr noundef %0, i32 noundef %1) #3 {
  %3 = alloca ptr, align 8
  %4 = alloca i32, align 4
  store ptr %0, ptr %3, align 8, !tbaa !46
  store i32 %1, ptr %4, align 4, !tbaa !8
  %5 = load ptr, ptr %3, align 8, !tbaa !46
  %6 = getelementptr inbounds nuw %struct.Abc_Obj_t_, ptr %5, i32 0, i32 0
  %7 = load ptr, ptr %6, align 8, !tbaa !71
  %8 = getelementptr inbounds nuw %struct.Abc_Ntk_t_, ptr %7, i32 0, i32 5
  %9 = load ptr, ptr %8, align 8, !tbaa !57
  %10 = getelementptr inbounds nuw %struct.Vec_Ptr_t_, ptr %9, i32 0, i32 2
  %11 = load ptr, ptr %10, align 8, !tbaa !68
  %12 = load ptr, ptr %3, align 8, !tbaa !46
  %13 = getelementptr inbounds nuw %struct.Abc_Obj_t_, ptr %12, i32 0, i32 5
  %14 = getelementptr inbounds nuw %struct.Vec_Int_t_, ptr %13, i32 0, i32 2
  %15 = load ptr, ptr %14, align 8, !tbaa !76
  %16 = load i32, ptr %4, align 4, !tbaa !8
  %17 = sext i32 %16 to i64
  %18 = getelementptr inbounds i32, ptr %15, i64 %17
  %19 = load i32, ptr %18, align 4, !tbaa !8
  %20 = sext i32 %19 to i64
  %21 = getelementptr inbounds ptr, ptr %11, i64 %20
  %22 = load ptr, ptr %21, align 8, !tbaa !74
  ret ptr %22
}

; Function Attrs: inlinehint nounwind uwtable
define internal i32 @Abc_ObjFanoutNum(ptr noundef %0) #3 {
  %2 = alloca ptr, align 8
  store ptr %0, ptr %2, align 8, !tbaa !46
  %3 = load ptr, ptr %2, align 8, !tbaa !46
  %4 = getelementptr inbounds nuw %struct.Abc_Obj_t_, ptr %3, i32 0, i32 5
  %5 = getelementptr inbounds nuw %struct.Vec_Int_t_, ptr %4, i32 0, i32 1
  %6 = load i32, ptr %5, align 4, !tbaa !102
  ret i32 %6
}

; Function Attrs: inlinehint nounwind uwtable
define internal i32 @Abc_ObjType(ptr noundef %0) #3 {
  %2 = alloca ptr, align 8
  store ptr %0, ptr %2, align 8, !tbaa !46
  %3 = load ptr, ptr %2, align 8, !tbaa !46
  %4 = getelementptr inbounds nuw %struct.Abc_Obj_t_, ptr %3, i32 0, i32 3
  %5 = load i32, ptr %4, align 4
  %6 = and i32 %5, 15
  ret i32 %6
}

; Function Attrs: inlinehint nounwind uwtable
define internal i32 @Abc_ObjId(ptr noundef %0) #3 {
  %2 = alloca ptr, align 8
  store ptr %0, ptr %2, align 8, !tbaa !46
  %3 = load ptr, ptr %2, align 8, !tbaa !46
  %4 = getelementptr inbounds nuw %struct.Abc_Obj_t_, ptr %3, i32 0, i32 2
  %5 = load i32, ptr %4, align 8, !tbaa !92
  ret i32 %5
}

; Function Attrs: nounwind uwtable
define void @print_node2(ptr noundef %0) #0 {
  %2 = alloca ptr, align 8
  %3 = alloca i32, align 4
  %4 = alloca ptr, align 8
  %5 = alloca [6 x i8], align 1
  store ptr %0, ptr %2, align 8, !tbaa !46
  call void @llvm.lifetime.start.p0(i64 4, ptr %3) #9
  call void @llvm.lifetime.start.p0(i64 8, ptr %4) #9
  call void @llvm.lifetime.start.p0(i64 6, ptr %5) #9
  %6 = getelementptr inbounds [6 x i8], ptr %5, i64 0, i64 0
  store i8 0, ptr %6, align 1, !tbaa !79
  %7 = load ptr, ptr %2, align 8, !tbaa !46
  %8 = getelementptr inbounds nuw %struct.Abc_Obj_t_, ptr %7, i32 0, i32 3
  %9 = load i32, ptr %8, align 4
  %10 = lshr i32 %9, 4
  %11 = and i32 %10, 1
  %12 = icmp ne i32 %11, 0
  br i1 %12, label %13, label %16

13:                                               ; preds = %1
  %14 = getelementptr inbounds [6 x i8], ptr %5, i64 0, i64 0
  %15 = call ptr @strcat(ptr noundef %14, ptr noundef @.str.21) #9
  br label %16

16:                                               ; preds = %13, %1
  %17 = load ptr, ptr %2, align 8, !tbaa !46
  %18 = getelementptr inbounds nuw %struct.Abc_Obj_t_, ptr %17, i32 0, i32 3
  %19 = load i32, ptr %18, align 4
  %20 = lshr i32 %19, 5
  %21 = and i32 %20, 1
  %22 = icmp ne i32 %21, 0
  br i1 %22, label %23, label %26

23:                                               ; preds = %16
  %24 = getelementptr inbounds [6 x i8], ptr %5, i64 0, i64 0
  %25 = call ptr @strcat(ptr noundef %24, ptr noundef @.str.22) #9
  br label %26

26:                                               ; preds = %23, %16
  %27 = load ptr, ptr %2, align 8, !tbaa !46
  %28 = getelementptr inbounds nuw %struct.Abc_Obj_t_, ptr %27, i32 0, i32 3
  %29 = load i32, ptr %28, align 4
  %30 = lshr i32 %29, 6
  %31 = and i32 %30, 1
  %32 = icmp ne i32 %31, 0
  br i1 %32, label %33, label %36

33:                                               ; preds = %26
  %34 = getelementptr inbounds [6 x i8], ptr %5, i64 0, i64 0
  %35 = call ptr @strcat(ptr noundef %34, ptr noundef @.str.23) #9
  br label %36

36:                                               ; preds = %33, %26
  %37 = load ptr, ptr %2, align 8, !tbaa !46
  %38 = call i32 @Abc_ObjId(ptr noundef %37)
  %39 = load ptr, ptr %2, align 8, !tbaa !46
  %40 = call i32 @Abc_ObjType(ptr noundef %39)
  %41 = getelementptr inbounds [6 x i8], ptr %5, i64 0, i64 0
  %42 = call i32 (ptr, ...) @printf(ptr noundef @.str.28, i32 noundef %38, i32 noundef %40, ptr noundef %41)
  store i32 0, ptr %3, align 4, !tbaa !8
  br label %43

43:                                               ; preds = %58, %36
  %44 = load i32, ptr %3, align 4, !tbaa !8
  %45 = load ptr, ptr %2, align 8, !tbaa !46
  %46 = call i32 @Abc_ObjFanoutNum(ptr noundef %45)
  %47 = icmp slt i32 %44, %46
  br i1 %47, label %48, label %52

48:                                               ; preds = %43
  %49 = load ptr, ptr %2, align 8, !tbaa !46
  %50 = load i32, ptr %3, align 4, !tbaa !8
  %51 = call ptr @Abc_ObjFanout(ptr noundef %49, i32 noundef %50)
  store ptr %51, ptr %4, align 8, !tbaa !46
  br label %52

52:                                               ; preds = %48, %43
  %53 = phi i1 [ false, %43 ], [ true, %48 ]
  br i1 %53, label %54, label %61

54:                                               ; preds = %52
  %55 = load ptr, ptr %4, align 8, !tbaa !46
  %56 = call i32 @Abc_ObjId(ptr noundef %55)
  %57 = call i32 (ptr, ...) @printf(ptr noundef @.str.29, i32 noundef %56)
  br label %58

58:                                               ; preds = %54
  %59 = load i32, ptr %3, align 4, !tbaa !8
  %60 = add nsw i32 %59, 1
  store i32 %60, ptr %3, align 4, !tbaa !8
  br label %43, !llvm.loop !107

61:                                               ; preds = %52
  %62 = call i32 (ptr, ...) @printf(ptr noundef @.str.26)
  store i32 0, ptr %3, align 4, !tbaa !8
  br label %63

63:                                               ; preds = %78, %61
  %64 = load i32, ptr %3, align 4, !tbaa !8
  %65 = load ptr, ptr %2, align 8, !tbaa !46
  %66 = call i32 @Abc_ObjFaninNum(ptr noundef %65)
  %67 = icmp slt i32 %64, %66
  br i1 %67, label %68, label %72

68:                                               ; preds = %63
  %69 = load ptr, ptr %2, align 8, !tbaa !46
  %70 = load i32, ptr %3, align 4, !tbaa !8
  %71 = call ptr @Abc_ObjFanin(ptr noundef %69, i32 noundef %70)
  store ptr %71, ptr %4, align 8, !tbaa !46
  br label %72

72:                                               ; preds = %68, %63
  %73 = phi i1 [ false, %63 ], [ true, %68 ]
  br i1 %73, label %74, label %81

74:                                               ; preds = %72
  %75 = load ptr, ptr %4, align 8, !tbaa !46
  %76 = call i32 @Abc_ObjId(ptr noundef %75)
  %77 = call i32 (ptr, ...) @printf(ptr noundef @.str.29, i32 noundef %76)
  br label %78

78:                                               ; preds = %74
  %79 = load i32, ptr %3, align 4, !tbaa !8
  %80 = add nsw i32 %79, 1
  store i32 %80, ptr %3, align 4, !tbaa !8
  br label %63, !llvm.loop !108

81:                                               ; preds = %72
  %82 = call i32 (ptr, ...) @printf(ptr noundef @.str.30)
  call void @llvm.lifetime.end.p0(i64 6, ptr %5) #9
  call void @llvm.lifetime.end.p0(i64 8, ptr %4) #9
  call void @llvm.lifetime.end.p0(i64 4, ptr %3) #9
  ret void
}