; Function Attrs: nofree nounwind uwtable
define void @print_node2(ptr noundef readonly captures(none) %0) local_unnamed_addr #9 {
  %2 = alloca [6 x i8], align 1
  call void @llvm.lifetime.start.p0(i64 6, ptr nonnull %2) #18
  store i8 0, ptr %2, align 1, !tbaa !59
  %3 = getelementptr inbounds nuw i8, ptr %0, i64 20
  %4 = load i32, ptr %3, align 4
  %5 = and i32 %4, 16
  %.not = icmp eq i32 %5, 0
  br i1 %.not, label %7, label %6

6:                                                ; preds = %1
  %strlen = call i64 @strlen(ptr noundef nonnull dereferenceable(1) %2)
  %endptr = getelementptr inbounds i8, ptr %2, i64 %strlen
  store i16 65, ptr %endptr, align 1
  br label %7

7:                                                ; preds = %6, %1
  %8 = and i32 %4, 32
  %.not18 = icmp eq i32 %8, 0
  br i1 %.not18, label %10, label %9

9:                                                ; preds = %7
  %strlen19 = call i64 @strlen(ptr noundef nonnull dereferenceable(1) %2)
  %endptr20 = getelementptr inbounds i8, ptr %2, i64 %strlen19
  store i16 66, ptr %endptr20, align 1
  br label %10

10:                                               ; preds = %9, %7
  %11 = and i32 %4, 64
  %.not21 = icmp eq i32 %11, 0
  br i1 %.not21, label %13, label %12

12:                                               ; preds = %10
  %strlen22 = call i64 @strlen(ptr noundef nonnull dereferenceable(1) %2)
  %endptr23 = getelementptr inbounds i8, ptr %2, i64 %strlen22
  store i16 67, ptr %endptr23, align 1
  br label %13

13:                                               ; preds = %12, %10
  %14 = getelementptr i8, ptr %0, i64 16
  %.val27 = load i32, ptr %14, align 8, !tbaa !80
  %15 = and i32 %4, 15
  %16 = call i32 (ptr, ...) @printf(ptr noundef nonnull dereferenceable(1) @.str.28, i32 noundef %.val27, i32 noundef %15, ptr noundef nonnull %2)
  %17 = getelementptr i8, ptr %0, i64 44
  %.val33 = load i32, ptr %17, align 4, !tbaa !58
  %18 = icmp sgt i32 %.val33, 0
  br i1 %18, label %.lr.ph, label %.critedge

.lr.ph:                                           ; preds = %13
  %19 = getelementptr i8, ptr %0, i64 48
  br label %20

20:                                               ; preds = %.lr.ph, %20
  %indvars.iv = phi i64 [ 0, %.lr.ph ], [ %indvars.iv.next, %20 ]
  %.val28 = load ptr, ptr %0, align 8, !tbaa !52
  %.val29 = load ptr, ptr %19, align 8, !tbaa !57
  %21 = getelementptr i8, ptr %.val28, i64 32
  %.val28.val = load ptr, ptr %21, align 8, !tbaa !56
  %22 = getelementptr i8, ptr %.val28.val, i64 8
  %.val28.val.val = load ptr, ptr %22, align 8, !tbaa !28
  %23 = getelementptr inbounds nuw i32, ptr %.val29, i64 %indvars.iv
  %24 = load i32, ptr %23, align 4, !tbaa !48
  %25 = sext i32 %24 to i64
  %26 = getelementptr inbounds ptr, ptr %.val28.val.val, i64 %25
  %27 = load ptr, ptr %26, align 8, !tbaa !51
  %28 = getelementptr i8, ptr %27, i64 16
  %.val26 = load i32, ptr %28, align 8, !tbaa !80
  %29 = call i32 (ptr, ...) @printf(ptr noundef nonnull dereferenceable(1) @.str.29, i32 noundef %.val26)
  %indvars.iv.next = add nuw nsw i64 %indvars.iv, 1
  %.val = load i32, ptr %17, align 4, !tbaa !58
  %30 = sext i32 %.val to i64
  %31 = icmp slt i64 %indvars.iv.next, %30
  br i1 %31, label %20, label %.critedge, !llvm.loop !114

.critedge:                                        ; preds = %20, %13
  %32 = call i32 (ptr, ...) @printf(ptr noundef nonnull dereferenceable(1) @.str.26)
  %33 = getelementptr i8, ptr %0, i64 28
  %.val2435 = load i32, ptr %33, align 4, !tbaa !62
  %34 = icmp sgt i32 %.val2435, 0
  br i1 %34, label %.lr.ph37, label %.critedge2

.lr.ph37:                                         ; preds = %.critedge
  %35 = getelementptr i8, ptr %0, i64 32
  br label %36

36:                                               ; preds = %.lr.ph37, %36
  %indvars.iv39 = phi i64 [ 0, %.lr.ph37 ], [ %indvars.iv.next40, %36 ]
  %.val31 = load ptr, ptr %0, align 8, !tbaa !52
  %.val32 = load ptr, ptr %35, align 8, !tbaa !55
  %37 = getelementptr i8, ptr %.val31, i64 32
  %.val31.val = load ptr, ptr %37, align 8, !tbaa !56
  %38 = getelementptr i8, ptr %.val31.val, i64 8
  %.val31.val.val = load ptr, ptr %38, align 8, !tbaa !28
  %39 = getelementptr inbounds nuw i32, ptr %.val32, i64 %indvars.iv39
  %40 = load i32, ptr %39, align 4, !tbaa !48
  %41 = sext i32 %40 to i64
  %42 = getelementptr inbounds ptr, ptr %.val31.val.val, i64 %41
  %43 = load ptr, ptr %42, align 8, !tbaa !51
  %44 = getelementptr i8, ptr %43, i64 16
  %.val25 = load i32, ptr %44, align 8, !tbaa !80
  %45 = call i32 (ptr, ...) @printf(ptr noundef nonnull dereferenceable(1) @.str.29, i32 noundef %.val25)
  %indvars.iv.next40 = add nuw nsw i64 %indvars.iv39, 1
  %.val24 = load i32, ptr %33, align 4, !tbaa !62
  %46 = sext i32 %.val24 to i64
  %47 = icmp slt i64 %indvars.iv.next40, %46
  br i1 %47, label %36, label %.critedge2, !llvm.loop !115

.critedge2:                                       ; preds = %36, %.critedge
  %48 = call i32 (ptr, ...) @printf(ptr noundef nonnull dereferenceable(1) @.str.30)
  call void @llvm.lifetime.end.p0(i64 6, ptr nonnull %2) #18
  ret void
}